target datalayout = "e-m:e-p270:32:32-p271:32:32-p272:64:64-i64:64-i128:128-f80:128-n8:16:32:64-S128"
target triple = "x86_64-pc-linux-gnu"

%struct.AccelOpsClass = type { %struct.ObjectClass, ptr, ptr, ptr, ptr, ptr, ptr, ptr, ptr, ptr, ptr, ptr, ptr, ptr, ptr, ptr, ptr, ptr, ptr, ptr, ptr }
%struct.ObjectClass = type { ptr, ptr, [4 x ptr], [4 x ptr], ptr, ptr }

; Function Attrs: nounwind sspstrong uwtable
define dso_local zeroext i1 @gdb_supports_guest_debug() #0 {
  %1 = alloca i1, align 1
  %2 = alloca ptr, align 8
  %3 = alloca i32, align 4
  call void @llvm.lifetime.start.p0(i64 8, ptr %2) #14
  %4 = call ptr @cpus_get_accel()
  store ptr %4, ptr %2, align 8
  %5 = load ptr, ptr %2, align 8
  %6 = getelementptr inbounds nuw %struct.AccelOpsClass, ptr %5, i32 0, i32 16
  %7 = load ptr, ptr %6, align 8
  %8 = icmp ne ptr %7, null
  br i1 %8, label %9, label %14

9:                                                ; preds = %0
  %10 = load ptr, ptr %2, align 8
  %11 = getelementptr inbounds nuw %struct.AccelOpsClass, ptr %10, i32 0, i32 16
  %12 = load ptr, ptr %11, align 8
  %13 = call zeroext i1 %12()
  store i1 %13, ptr %1, align 1
  store i32 1, ptr %3, align 4
  br label %15

14:                                               ; preds = %0
  store i1 false, ptr %1, align 1
  store i32 1, ptr %3, align 4
  br label %15

15:                                               ; preds = %14, %9
  call void @llvm.lifetime.end.p0(i64 8, ptr %2) #14
  %16 = load i1, ptr %1, align 1
  ret i1 %16
}