; Function Attrs: nounwind sspstrong uwtable
define dso_local zeroext i1 @gdb_supports_guest_debug() local_unnamed_addr #2 {
  %1 = tail call ptr @cpus_get_accel() #16
  %2 = getelementptr inbounds nuw i8, ptr %1, i64 216
  %3 = load ptr, ptr %2, align 8
  %.not = icmp eq ptr %3, null
  br i1 %.not, label %6, label %4

4:                                                ; preds = %0
  %5 = tail call zeroext i1 %3() #16
  br label %6

6:                                                ; preds = %0, %4
  %.0 = phi i1 [ %5, %4 ], [ false, %0 ]
  ret i1 %.0
}